target datalayout = "e-m:e-p270:32:32-p271:32:32-p272:64:64-i64:64-i128:128-f80:128-n8:16:32:64-S128"
target triple = "x86_64-pc-linux-gnu"

%struct.ident_t = type { i32, i32, i32, i32, ptr }
%"class.std::vector.11" = type { %"struct.std::_Vector_base.12" }
%"struct.std::_Vector_base.12" = type { %"struct.std::_Vector_base<float, std::allocator<float>>::_Vector_impl" }
%"struct.std::_Vector_base<float, std::allocator<float>>::_Vector_impl" = type { %"struct.std::_Vector_base<float, std::allocator<float>>::_Vector_impl_data" }
%"struct.std::_Vector_base<float, std::allocator<float>>::_Vector_impl_data" = type { ptr, ptr, ptr }
%"struct.faiss::AdditiveQuantizer" = type <{ %"struct.faiss::Quantizer", i64, %"class.std::vector", %"class.std::vector.11", %"class.std::vector", i64, i64, i64, i8, i8, i8, [5 x i8], %"struct.faiss::IndexFlat1D", %"class.std::vector.11", i64, i32, float, float, [4 x i8] }>
%"struct.faiss::Quantizer" = type { ptr, i64, i64 }
%"class.std::vector" = type { %"struct.std::_Vector_base" }
%"struct.std::_Vector_base" = type { %"struct.std::_Vector_base<unsigned long, std::allocator<unsigned long>>::_Vector_impl" }
%"struct.std::_Vector_base<unsigned long, std::allocator<unsigned long>>::_Vector_impl" = type { %"struct.std::_Vector_base<unsigned long, std::allocator<unsigned long>>::_Vector_impl_data" }
%"struct.std::_Vector_base<unsigned long, std::allocator<unsigned long>>::_Vector_impl_data" = type { ptr, ptr, ptr }
%"struct.faiss::IndexFlat1D" = type { %"struct.faiss::IndexFlatL2", i8, %"class.std::vector.21" }
%"struct.faiss::IndexFlatL2" = type { %"struct.faiss::IndexFlat", %"class.std::vector.11" }
%"struct.faiss::IndexFlat" = type { %"struct.faiss::IndexFlatCodes" }
%"struct.faiss::IndexFlatCodes" = type { %"struct.faiss::Index.base", i64, %"class.std::vector.16" }
%"struct.faiss::Index.base" = type <{ ptr, i32, [4 x i8], i64, i8, i8, [2 x i8], i32, float }>
%"class.std::vector.16" = type { %"struct.std::_Vector_base.17" }
%"struct.std::_Vector_base.17" = type { %"struct.std::_Vector_base<unsigned char, std::allocator<unsigned char>>::_Vector_impl" }
%"struct.std::_Vector_base<unsigned char, std::allocator<unsigned char>>::_Vector_impl" = type { %"struct.std::_Vector_base<unsigned char, std::allocator<unsigned char>>::_Vector_impl_data" }
%"struct.std::_Vector_base<unsigned char, std::allocator<unsigned char>>::_Vector_impl_data" = type { ptr, ptr, ptr }
%"class.std::vector.21" = type { %"struct.std::_Vector_base.22" }
%"struct.std::_Vector_base.22" = type { %"struct.std::_Vector_base<long, std::allocator<long>>::_Vector_impl" }
%"struct.std::_Vector_base<long, std::allocator<long>>::_Vector_impl" = type { %"struct.std::_Vector_base<long, std::allocator<long>>::_Vector_impl_data" }
%"struct.std::_Vector_base<long, std::allocator<long>>::_Vector_impl_data" = type { ptr, ptr, ptr }
%"struct.faiss::LocalSearchQuantizer" = type <{ %"struct.faiss::AdditiveQuantizer.base", [4 x i8], i64, i64, i64, i64, i64, float, float, i64, i32, [4 x i8], i64, ptr, i8, [7 x i8] }>
%"struct.faiss::AdditiveQuantizer.base" = type <{ %"struct.faiss::Quantizer", i64, %"class.std::vector", %"class.std::vector.11", %"class.std::vector", i64, i64, i64, i8, i8, i8, [5 x i8], %"struct.faiss::IndexFlat1D", %"class.std::vector.11", i64, i32, float, float }>
%"class.std::__cxx11::basic_string" = type { %"struct.std::__cxx11::basic_string<char>::_Alloc_hider", i64, %union.anon }
%"struct.std::__cxx11::basic_string<char>::_Alloc_hider" = type { ptr }
%union.anon = type { i64, [8 x i8] }

@.str.1 = private unnamed_addr constant [19 x i8] c"Error: '%s' failed\00", align 1
@.str.3 = private unnamed_addr constant [125 x i8] c"generated/home/dtcxzyw/WorkSpace/Projects/compilers/llvm-opt-benchmark/bench/faiss/faiss/faiss/impl/LocalSearchQuantizer.cpp\00", align 1
@_ZTIN5faiss14FaissExceptionE = external constant ptr
@2 = private unnamed_addr constant %struct.ident_t { i32 0, i32 2, i32 0, i32 22, ptr @0 }, align 8
@.str.30 = private unnamed_addr constant [17 x i8] c"M != 0 && K != 0\00", align 1
@__PRETTY_FUNCTION__._ZNK5faiss20LocalSearchQuantizer15icm_encode_stepEPiPKfS3_mm = private unnamed_addr constant [113 x i8] c"void faiss::LocalSearchQuantizer::icm_encode_step(int32_t *, const float *, const float *, size_t, size_t) const\00", align 1
@.str.31 = private unnamed_addr constant [20 x i8] c"binaries != nullptr\00", align 1

; Function Attrs: mustprogress uwtable
define void @_ZNK5faiss20LocalSearchQuantizer15icm_encode_stepEPiPKfS3_mm(ptr noundef nonnull align 8 dereferenceable(393) %0, ptr noundef %1, ptr noundef %2, ptr noundef %3, i64 noundef %4, i64 noundef %5) #1 align 2 personality ptr @__gxx_personality_v0 {
  %7 = alloca ptr, align 8
  %8 = alloca ptr, align 8
  %9 = alloca ptr, align 8
  %10 = alloca ptr, align 8
  %11 = alloca i64, align 8
  %12 = alloca i64, align 8
  %13 = alloca %"class.std::__cxx11::basic_string", align 8
  %14 = alloca i32, align 4
  %15 = alloca ptr, align 8
  %16 = alloca i32, align 4
  %17 = alloca %"class.std::__cxx11::basic_string", align 8
  %18 = alloca i32, align 4
  store ptr %0, ptr %7, align 8
  store ptr %1, ptr %8, align 8
  store ptr %2, ptr %9, align 8
  store ptr %3, ptr %10, align 8
  store i64 %4, ptr %11, align 8
  store i64 %5, ptr %12, align 8
  %19 = load ptr, ptr %7, align 8
  br label %20

20:                                               ; preds = %6
  %21 = getelementptr inbounds %"struct.faiss::AdditiveQuantizer", ptr %19, i32 0, i32 1
  %22 = load i64, ptr %21, align 8
  %23 = icmp ne i64 %22, 0
  br i1 %23, label %24, label %28

24:                                               ; preds = %20
  %25 = getelementptr inbounds %"struct.faiss::LocalSearchQuantizer", ptr %19, i32 0, i32 2
  %26 = load i64, ptr %25, align 8
  %27 = icmp ne i64 %26, 0
  br i1 %27, label %51, label %28

28:                                               ; preds = %24, %20
  br label %29

29:                                               ; preds = %28
  call void @_ZNSt7__cxx1112basic_stringIcSt11char_traitsIcESaIcEEC1Ev(ptr noundef nonnull align 8 dereferenceable(32) %13) #4
  %30 = call i32 (ptr, i64, ptr, ...) @snprintf(ptr noundef null, i64 noundef 0, ptr noundef @.str.1, ptr noundef @.str.30) #4
  store i32 %30, ptr %14, align 4
  %31 = load i32, ptr %14, align 4
  %32 = add nsw i32 %31, 1
  %33 = sext i32 %32 to i64
  invoke void @_ZNSt7__cxx1112basic_stringIcSt11char_traitsIcESaIcEE6resizeEm(ptr noundef nonnull align 8 dereferenceable(32) %13, i64 noundef %33)
          to label %34 unwind label %41

34:                                               ; preds = %29
  %35 = invoke noundef nonnull align 1 dereferenceable(1) ptr @_ZNSt7__cxx1112basic_stringIcSt11char_traitsIcESaIcEEixEm(ptr noundef nonnull align 8 dereferenceable(32) %13, i64 noundef 0)
          to label %36 unwind label %41

36:                                               ; preds = %34
  %37 = call noundef i64 @_ZNKSt7__cxx1112basic_stringIcSt11char_traitsIcESaIcEE4sizeEv(ptr noundef nonnull align 8 dereferenceable(32) %13) #4
  %38 = call i32 (ptr, i64, ptr, ...) @snprintf(ptr noundef %35, i64 noundef %37, ptr noundef @.str.1, ptr noundef @.str.30) #4
  %39 = call ptr @__cxa_allocate_exception(i64 40) #4
  invoke void @_ZN5faiss14FaissExceptionC1ERKNSt7__cxx1112basic_stringIcSt11char_traitsIcESaIcEEEPKcSA_i(ptr noundef nonnull align 8 dereferenceable(40) %39, ptr noundef nonnull align 8 dereferenceable(32) %13, ptr noundef @__PRETTY_FUNCTION__._ZNK5faiss20LocalSearchQuantizer15icm_encode_stepEPiPKfS3_mm, ptr noundef @.str.3, i32 noundef 597)
          to label %40 unwind label %45

40:                                               ; preds = %36
  invoke void @__cxa_throw(ptr %39, ptr @_ZTIN5faiss14FaissExceptionE, ptr @_ZN5faiss14FaissExceptionD2Ev) #19
          to label %86 unwind label %41

41:                                               ; preds = %40, %34, %29
  %42 = landingpad { ptr, i32 }
          cleanup
  %43 = extractvalue { ptr, i32 } %42, 0
  store ptr %43, ptr %15, align 8
  %44 = extractvalue { ptr, i32 } %42, 1
  store i32 %44, ptr %16, align 4
  br label %49

45:                                               ; preds = %36
  %46 = landingpad { ptr, i32 }
          cleanup
  %47 = extractvalue { ptr, i32 } %46, 0
  store ptr %47, ptr %15, align 8
  %48 = extractvalue { ptr, i32 } %46, 1
  store i32 %48, ptr %16, align 4
  call void @__cxa_free_exception(ptr %39) #4
  br label %49

49:                                               ; preds = %45, %41
  call void @_ZNSt7__cxx1112basic_stringIcSt11char_traitsIcESaIcEED1Ev(ptr noundef nonnull align 8 dereferenceable(32) %13) #4
  br label %81

50:                                               ; No predecessors!
  br label %51

51:                                               ; preds = %50, %24
  br label %52

52:                                               ; preds = %51
  br label %53

53:                                               ; preds = %52
  %54 = load ptr, ptr %10, align 8
  %55 = icmp ne ptr %54, null
  br i1 %55, label %79, label %56

56:                                               ; preds = %53
  br label %57

57:                                               ; preds = %56
  call void @_ZNSt7__cxx1112basic_stringIcSt11char_traitsIcESaIcEEC1Ev(ptr noundef nonnull align 8 dereferenceable(32) %17) #4
  %58 = call i32 (ptr, i64, ptr, ...) @snprintf(ptr noundef null, i64 noundef 0, ptr noundef @.str.1, ptr noundef @.str.31) #4
  store i32 %58, ptr %18, align 4
  %59 = load i32, ptr %18, align 4
  %60 = add nsw i32 %59, 1
  %61 = sext i32 %60 to i64
  invoke void @_ZNSt7__cxx1112basic_stringIcSt11char_traitsIcESaIcEE6resizeEm(ptr noundef nonnull align 8 dereferenceable(32) %17, i64 noundef %61)
          to label %62 unwind label %69

62:                                               ; preds = %57
  %63 = invoke noundef nonnull align 1 dereferenceable(1) ptr @_ZNSt7__cxx1112basic_stringIcSt11char_traitsIcESaIcEEixEm(ptr noundef nonnull align 8 dereferenceable(32) %17, i64 noundef 0)
          to label %64 unwind label %69

64:                                               ; preds = %62
  %65 = call noundef i64 @_ZNKSt7__cxx1112basic_stringIcSt11char_traitsIcESaIcEE4sizeEv(ptr noundef nonnull align 8 dereferenceable(32) %17) #4
  %66 = call i32 (ptr, i64, ptr, ...) @snprintf(ptr noundef %63, i64 noundef %65, ptr noundef @.str.1, ptr noundef @.str.31) #4
  %67 = call ptr @__cxa_allocate_exception(i64 40) #4
  invoke void @_ZN5faiss14FaissExceptionC1ERKNSt7__cxx1112basic_stringIcSt11char_traitsIcESaIcEEEPKcSA_i(ptr noundef nonnull align 8 dereferenceable(40) %67, ptr noundef nonnull align 8 dereferenceable(32) %17, ptr noundef @__PRETTY_FUNCTION__._ZNK5faiss20LocalSearchQuantizer15icm_encode_stepEPiPKfS3_mm, ptr noundef @.str.3, i32 noundef 598)
          to label %68 unwind label %73

68:                                               ; preds = %64
  invoke void @__cxa_throw(ptr %67, ptr @_ZTIN5faiss14FaissExceptionE, ptr @_ZN5faiss14FaissExceptionD2Ev) #19
          to label %86 unwind label %69

69:                                               ; preds = %68, %62, %57
  %70 = landingpad { ptr, i32 }
          cleanup
  %71 = extractvalue { ptr, i32 } %70, 0
  store ptr %71, ptr %15, align 8
  %72 = extractvalue { ptr, i32 } %70, 1
  store i32 %72, ptr %16, align 4
  br label %77

73:                                               ; preds = %64
  %74 = landingpad { ptr, i32 }
          cleanup
  %75 = extractvalue { ptr, i32 } %74, 0
  store ptr %75, ptr %15, align 8
  %76 = extractvalue { ptr, i32 } %74, 1
  store i32 %76, ptr %16, align 4
  call void @__cxa_free_exception(ptr %67) #4
  br label %77

77:                                               ; preds = %73, %69
  call void @_ZNSt7__cxx1112basic_stringIcSt11char_traitsIcESaIcEED1Ev(ptr noundef nonnull align 8 dereferenceable(32) %17) #4
  br label %81

78:                                               ; No predecessors!
  br label %79

79:                                               ; preds = %78, %53
  br label %80

80:                                               ; preds = %79
  call void (ptr, i32, ptr, ...) @__kmpc_fork_call(ptr @2, i32 6, ptr @_ZNK5faiss20LocalSearchQuantizer15icm_encode_stepEPiPKfS3_mm.omp_outlined, ptr %11, ptr %19, ptr %12, ptr %9, ptr %8, ptr %10)
  ret void

81:                                               ; preds = %77, %49
  %82 = load ptr, ptr %15, align 8
  %83 = load i32, ptr %16, align 4
  %84 = insertvalue { ptr, i32 } poison, ptr %82, 0
  %85 = insertvalue { ptr, i32 } %84, i32 %83, 1
  resume { ptr, i32 } %85

86:                                               ; preds = %68, %40
  unreachable
}