; Function Attrs: mustprogress uwtable
define void @_ZNK5faiss20LocalSearchQuantizer15icm_encode_stepEPiPKfS3_mm(ptr noundef nonnull align 8 dereferenceable(393) %0, ptr noundef %1, ptr noundef %2, ptr noundef %3, i64 noundef %4, i64 noundef %5) local_unnamed_addr #1 align 2 personality ptr @__gxx_personality_v0 {
  %7 = alloca ptr, align 8
  %8 = alloca ptr, align 8
  %9 = alloca ptr, align 8
  %10 = alloca i64, align 8
  %11 = alloca i64, align 8
  %12 = alloca %"class.std::__cxx11::basic_string", align 8
  %13 = alloca %"class.std::__cxx11::basic_string", align 8
  store ptr %1, ptr %7, align 8
  store ptr %2, ptr %8, align 8
  store ptr %3, ptr %9, align 8
  store i64 %4, ptr %10, align 8
  store i64 %5, ptr %11, align 8
  %14 = getelementptr inbounds i8, ptr %0, i64 24
  %15 = load i64, ptr %14, align 8
  %.not = icmp eq i64 %15, 0
  %16 = getelementptr inbounds i8, ptr %0, i64 312
  %17 = load i64, ptr %16, align 8
  %.not7 = icmp eq i64 %17, 0
  %or.cond = select i1 %.not, i1 true, i1 %.not7
  br i1 %or.cond, label %18, label %33

18:                                               ; preds = %6
  call void @_ZNSt7__cxx1112basic_stringIcSt11char_traitsIcESaIcEEC1Ev(ptr noundef nonnull align 8 dereferenceable(32) %12) #12
  %19 = call i32 (ptr, i64, ptr, ...) @snprintf(ptr noundef null, i64 noundef 0, ptr noundef nonnull @.str.1, ptr noundef nonnull @.str.30) #12
  %20 = add nsw i32 %19, 1
  %21 = sext i32 %20 to i64
  invoke void @_ZNSt7__cxx1112basic_stringIcSt11char_traitsIcESaIcEE6resizeEm(ptr noundef nonnull align 8 dereferenceable(32) %12, i64 noundef %21)
          to label %22 unwind label %29

22:                                               ; preds = %18
  %23 = invoke noundef nonnull align 1 dereferenceable(1) ptr @_ZNSt7__cxx1112basic_stringIcSt11char_traitsIcESaIcEEixEm(ptr noundef nonnull align 8 dereferenceable(32) %12, i64 noundef 0)
          to label %24 unwind label %29

24:                                               ; preds = %22
  %25 = call noundef i64 @_ZNKSt7__cxx1112basic_stringIcSt11char_traitsIcESaIcEE4sizeEv(ptr noundef nonnull align 8 dereferenceable(32) %12) #12
  %26 = call i32 (ptr, i64, ptr, ...) @snprintf(ptr noundef nonnull %23, i64 noundef %25, ptr noundef nonnull @.str.1, ptr noundef nonnull @.str.30) #12
  %27 = call ptr @__cxa_allocate_exception(i64 40) #12
  invoke void @_ZN5faiss14FaissExceptionC1ERKNSt7__cxx1112basic_stringIcSt11char_traitsIcESaIcEEEPKcSA_i(ptr noundef nonnull align 8 dereferenceable(40) %27, ptr noundef nonnull align 8 dereferenceable(32) %12, ptr noundef nonnull @__PRETTY_FUNCTION__._ZNK5faiss20LocalSearchQuantizer15icm_encode_stepEPiPKfS3_mm, ptr noundef nonnull @.str.3, i32 noundef 597)
          to label %28 unwind label %31

28:                                               ; preds = %24
  invoke void @__cxa_throw(ptr nonnull %27, ptr nonnull @_ZTIN5faiss14FaissExceptionE, ptr nonnull @_ZN5faiss14FaissExceptionD2Ev) #26
          to label %51 unwind label %29

29:                                               ; preds = %28, %22, %18
  %30 = landingpad { ptr, i32 }
          cleanup
  br label %50

31:                                               ; preds = %24
  %32 = landingpad { ptr, i32 }
          cleanup
  call void @__cxa_free_exception(ptr %27) #12
  br label %50

33:                                               ; preds = %6
  %.not9 = icmp eq ptr %3, null
  br i1 %.not9, label %34, label %49

34:                                               ; preds = %33
  call void @_ZNSt7__cxx1112basic_stringIcSt11char_traitsIcESaIcEEC1Ev(ptr noundef nonnull align 8 dereferenceable(32) %13) #12
  %35 = call i32 (ptr, i64, ptr, ...) @snprintf(ptr noundef null, i64 noundef 0, ptr noundef nonnull @.str.1, ptr noundef nonnull @.str.31) #12
  %36 = add nsw i32 %35, 1
  %37 = sext i32 %36 to i64
  invoke void @_ZNSt7__cxx1112basic_stringIcSt11char_traitsIcESaIcEE6resizeEm(ptr noundef nonnull align 8 dereferenceable(32) %13, i64 noundef %37)
          to label %38 unwind label %45

38:                                               ; preds = %34
  %39 = invoke noundef nonnull align 1 dereferenceable(1) ptr @_ZNSt7__cxx1112basic_stringIcSt11char_traitsIcESaIcEEixEm(ptr noundef nonnull align 8 dereferenceable(32) %13, i64 noundef 0)
          to label %40 unwind label %45

40:                                               ; preds = %38
  %41 = call noundef i64 @_ZNKSt7__cxx1112basic_stringIcSt11char_traitsIcESaIcEE4sizeEv(ptr noundef nonnull align 8 dereferenceable(32) %13) #12
  %42 = call i32 (ptr, i64, ptr, ...) @snprintf(ptr noundef nonnull %39, i64 noundef %41, ptr noundef nonnull @.str.1, ptr noundef nonnull @.str.31) #12
  %43 = call ptr @__cxa_allocate_exception(i64 40) #12
  invoke void @_ZN5faiss14FaissExceptionC1ERKNSt7__cxx1112basic_stringIcSt11char_traitsIcESaIcEEEPKcSA_i(ptr noundef nonnull align 8 dereferenceable(40) %43, ptr noundef nonnull align 8 dereferenceable(32) %13, ptr noundef nonnull @__PRETTY_FUNCTION__._ZNK5faiss20LocalSearchQuantizer15icm_encode_stepEPiPKfS3_mm, ptr noundef nonnull @.str.3, i32 noundef 598)
          to label %44 unwind label %47

44:                                               ; preds = %40
  invoke void @__cxa_throw(ptr nonnull %43, ptr nonnull @_ZTIN5faiss14FaissExceptionE, ptr nonnull @_ZN5faiss14FaissExceptionD2Ev) #26
          to label %51 unwind label %45

45:                                               ; preds = %44, %38, %34
  %46 = landingpad { ptr, i32 }
          cleanup
  br label %50

47:                                               ; preds = %40
  %48 = landingpad { ptr, i32 }
          cleanup
  call void @__cxa_free_exception(ptr %43) #12
  br label %50

49:                                               ; preds = %33
  call void (ptr, i32, ptr, ...) @__kmpc_fork_call(ptr nonnull @2, i32 6, ptr nonnull @_ZNK5faiss20LocalSearchQuantizer15icm_encode_stepEPiPKfS3_mm.omp_outlined, ptr nonnull %10, ptr nonnull %0, ptr nonnull %11, ptr nonnull %8, ptr nonnull %7, ptr nonnull %9)
  ret void

50:                                               ; preds = %45, %47, %29, %31
  %.sink = phi ptr [ %12, %31 ], [ %12, %29 ], [ %13, %47 ], [ %13, %45 ]
  %.pn10.pn = phi { ptr, i32 } [ %32, %31 ], [ %30, %29 ], [ %48, %47 ], [ %46, %45 ]
  call void @_ZNSt7__cxx1112basic_stringIcSt11char_traitsIcESaIcEED1Ev(ptr noundef nonnull align 8 dereferenceable(32) %.sink) #12
  resume { ptr, i32 } %.pn10.pn

51:                                               ; preds = %44, %28
  unreachable
}